target datalayout = "e-m:e-p270:32:32-p271:32:32-p272:64:64-i64:64-i128:128-f80:128-n8:16:32:64-S128"
target triple = "x86_64-pc-linux-gnu"

%struct.png_struct_def = type { [1 x %struct.__jmp_buf_tag], ptr, ptr, i64, ptr, ptr, ptr, ptr, ptr, ptr, ptr, ptr, ptr, i8, i8, i32, i32, i32, i32, %struct.z_stream_s, ptr, i32, i32, i32, i32, i32, i32, i32, i32, i32, i32, i32, i32, i32, i32, i32, i32, i32, i32, i32, i32, i32, i64, i32, i32, i32, ptr, ptr, ptr, ptr, i64, i32, i32, ptr, i16, i32, i16, i8, i8, i8, i8, i8, i8, i8, i8, i8, i8, i8, i8, i8, i8, i8, i16, i8, i32, %struct.png_color_16_struct, %struct.png_color_16_struct, ptr, i32, i32, %struct.png_xy, i32, i32, i32, i32, i32, ptr, ptr, ptr, ptr, ptr, ptr, %struct.png_color_8_struct, %struct.png_color_8_struct, ptr, %struct.png_color_16_struct, ptr, ptr, ptr, ptr, ptr, ptr, ptr, ptr, ptr, i32, i32, i64, i64, i64, i64, i32, i32, ptr, ptr, i32, [29 x i8], i32, ptr, ptr, i32, i32, ptr, i8, i8, i16, i16, ptr, i32, i8, ptr, ptr, ptr, ptr, ptr, ptr, ptr, i8, i32, i32, i32, i64, %struct.png_unknown_chunk_t, i64, ptr, i64, i32, i32, ptr, [4 x ptr] }
%struct.__jmp_buf_tag = type { [8 x i64], i32, %struct.__sigset_t }
%struct.__sigset_t = type { [16 x i64] }
%struct.z_stream_s = type { ptr, i32, i64, ptr, i32, i64, ptr, ptr, ptr, ptr, ptr, i32, i64, i64 }
%struct.png_xy = type { i32, i32, i32, i32, i32, i32, i32, i32 }
%struct.png_color_8_struct = type { i8, i8, i8, i8, i8 }
%struct.png_color_16_struct = type { i8, i16, i16, i16, i16 }
%struct.png_unknown_chunk_t = type { [5 x i8], ptr, i64, i8 }

; Function Attrs: nounwind uwtable
define void @png_free_jmpbuf(ptr noalias noundef %0) #1 {
  %2 = alloca ptr, align 8
  %3 = alloca ptr, align 8
  %4 = alloca [1 x %struct.__jmp_buf_tag], align 16
  store ptr %0, ptr %2, align 8, !tbaa !3
  %5 = load ptr, ptr %2, align 8, !tbaa !3
  %6 = icmp ne ptr %5, null
  br i1 %6, label %7, label %45

7:                                                ; preds = %1
  call void @llvm.lifetime.start.p0(i64 8, ptr %3) #10
  %8 = load ptr, ptr %2, align 8, !tbaa !3
  %9 = getelementptr inbounds nuw %struct.png_struct_def, ptr %8, i32 0, i32 2
  %10 = load ptr, ptr %9, align 8, !tbaa !45
  store ptr %10, ptr %3, align 8, !tbaa !48
  %11 = load ptr, ptr %3, align 8, !tbaa !48
  %12 = icmp ne ptr %11, null
  br i1 %12, label %13, label %38

13:                                               ; preds = %7
  %14 = load ptr, ptr %2, align 8, !tbaa !3
  %15 = getelementptr inbounds nuw %struct.png_struct_def, ptr %14, i32 0, i32 3
  %16 = load i64, ptr %15, align 8, !tbaa !46
  %17 = icmp ugt i64 %16, 0
  br i1 %17, label %18, label %38

18:                                               ; preds = %13
  %19 = load ptr, ptr %3, align 8, !tbaa !48
  %20 = load ptr, ptr %2, align 8, !tbaa !3
  %21 = getelementptr inbounds nuw %struct.png_struct_def, ptr %20, i32 0, i32 0
  %22 = icmp ne ptr %19, %21
  br i1 %22, label %23, label %37

23:                                               ; preds = %18
  call void @llvm.lifetime.start.p0(i64 200, ptr %4) #10
  %24 = getelementptr inbounds [1 x %struct.__jmp_buf_tag], ptr %4, i64 0, i64 0
  %25 = call i32 @_setjmp(ptr noundef %24) #11
  %26 = icmp ne i32 %25, 0
  br i1 %26, label %36, label %27

27:                                               ; preds = %23
  %28 = load ptr, ptr %2, align 8, !tbaa !3
  %29 = getelementptr inbounds nuw %struct.png_struct_def, ptr %28, i32 0, i32 2
  store ptr %4, ptr %29, align 8, !tbaa !45
  %30 = load ptr, ptr %2, align 8, !tbaa !3
  %31 = getelementptr inbounds nuw %struct.png_struct_def, ptr %30, i32 0, i32 3
  store i64 0, ptr %31, align 8, !tbaa !46
  %32 = load ptr, ptr %2, align 8, !tbaa !3
  %33 = getelementptr inbounds nuw %struct.png_struct_def, ptr %32, i32 0, i32 1
  store ptr @longjmp, ptr %33, align 8, !tbaa !47
  %34 = load ptr, ptr %2, align 8, !tbaa !3
  %35 = load ptr, ptr %3, align 8, !tbaa !48
  call void @png_free(ptr noundef %34, ptr noundef %35)
  br label %36

36:                                               ; preds = %27, %23
  call void @llvm.lifetime.end.p0(i64 200, ptr %4) #10
  br label %37

37:                                               ; preds = %36, %18
  br label %38

38:                                               ; preds = %37, %13, %7
  %39 = load ptr, ptr %2, align 8, !tbaa !3
  %40 = getelementptr inbounds nuw %struct.png_struct_def, ptr %39, i32 0, i32 3
  store i64 0, ptr %40, align 8, !tbaa !46
  %41 = load ptr, ptr %2, align 8, !tbaa !3
  %42 = getelementptr inbounds nuw %struct.png_struct_def, ptr %41, i32 0, i32 2
  store ptr null, ptr %42, align 8, !tbaa !45
  %43 = load ptr, ptr %2, align 8, !tbaa !3
  %44 = getelementptr inbounds nuw %struct.png_struct_def, ptr %43, i32 0, i32 1
  store ptr null, ptr %44, align 8, !tbaa !47
  call void @llvm.lifetime.end.p0(i64 8, ptr %3) #10
  br label %45

45:                                               ; preds = %38, %1
  ret void
}