; Function Attrs: nounwind uwtable
define void @png_free_jmpbuf(ptr noalias noundef %0) local_unnamed_addr #5 {
  %2 = alloca [1 x %struct.__jmp_buf_tag], align 16
  %.not = icmp eq ptr %0, null
  br i1 %.not, label %16, label %3

3:                                                ; preds = %1
  %4 = getelementptr inbounds nuw i8, ptr %0, i64 208
  %5 = load ptr, ptr %4, align 8, !tbaa !70
  %.not15 = icmp eq ptr %5, null
  br i1 %.not15, label %14, label %6

6:                                                ; preds = %3
  %7 = getelementptr inbounds nuw i8, ptr %0, i64 216
  %8 = load i64, ptr %7, align 8, !tbaa !71
  %.not16 = icmp eq i64 %8, 0
  %.not17 = icmp eq ptr %5, %0
  %or.cond = or i1 %.not17, %.not16
  br i1 %or.cond, label %14, label %9

9:                                                ; preds = %6
  call void @llvm.lifetime.start.p0(i64 200, ptr nonnull %2) #21
  %10 = call i32 @_setjmp(ptr noundef nonnull %2) #24
  %.not18 = icmp eq i32 %10, 0
  br i1 %.not18, label %11, label %13

11:                                               ; preds = %9
  store ptr %2, ptr %4, align 8, !tbaa !70
  store i64 0, ptr %7, align 8, !tbaa !71
  %12 = getelementptr inbounds nuw i8, ptr %0, i64 200
  store ptr @longjmp, ptr %12, align 8, !tbaa !75
  call void @png_free(ptr noundef nonnull %0, ptr noundef nonnull %5) #21
  br label %13

13:                                               ; preds = %11, %9
  call void @llvm.lifetime.end.p0(i64 200, ptr nonnull %2) #21
  br label %14

14:                                               ; preds = %13, %6, %3
  %15 = getelementptr inbounds nuw i8, ptr %0, i64 200
  call void @llvm.memset.p0.i64(ptr noundef nonnull align 8 dereferenceable(24) %15, i8 0, i64 24, i1 false)
  br label %16

16:                                               ; preds = %14, %1
  ret void
}